; Function Attrs: mustprogress uwtable
define void @_ZN8QuantLib24PartialTimeBarrierOption9argumentsC2Ev(ptr noundef nonnull align 8 dereferenceable(72) %this, ptr noundef %vtt) unnamed_addr #9 align 2 personality ptr @__gxx_personality_v0 {
invoke.cont5:
  %retval.i = alloca %"class.QuantLib::Date", align 8
  %0 = getelementptr inbounds i8, ptr %vtt, i64 8
  %1 = load ptr, ptr %0, align 8
  store ptr %1, ptr %this, align 8, !tbaa !33
  %2 = getelementptr inbounds i8, ptr %vtt, i64 16
  %3 = load ptr, ptr %2, align 8
  %vbase.offset.ptr.i = getelementptr i8, ptr %1, i64 -40
  %vbase.offset.i = load i64, ptr %vbase.offset.ptr.i, align 8
  %add.ptr.i = getelementptr inbounds i8, ptr %this, i64 %vbase.offset.i
  store ptr %3, ptr %add.ptr.i, align 8, !tbaa !33
  %payoff.i = getelementptr inbounds nuw i8, ptr %this, i64 8
  tail call void @llvm.memset.p0.i64(ptr noundef nonnull align 8 dereferenceable(32) %payoff.i, i8 0, i64 32, i1 false)
  %4 = load ptr, ptr %vtt, align 8
  store ptr %4, ptr %this, align 8, !tbaa !33
  %5 = getelementptr inbounds i8, ptr %vtt, i64 24
  %6 = load ptr, ptr %5, align 8
  %vbase.offset.ptr = getelementptr i8, ptr %4, i64 -40
  %vbase.offset = load i64, ptr %vbase.offset.ptr, align 8
  %add.ptr = getelementptr inbounds i8, ptr %this, i64 %vbase.offset
  store ptr %6, ptr %add.ptr, align 8, !tbaa !33
  %barrierType = getelementptr inbounds nuw i8, ptr %this, i64 40
  store i32 -1, ptr %barrierType, align 8, !tbaa !68
  %barrierRange = getelementptr inbounds nuw i8, ptr %this, i64 44
  store i32 -1, ptr %barrierRange, align 4, !tbaa !71
  %barrier = getelementptr inbounds nuw i8, ptr %this, i64 48
  store double 0x47EFFFFFE0000000, ptr %barrier, align 8, !tbaa !72
  %rebate = getelementptr inbounds nuw i8, ptr %this, i64 56
  store double 0x47EFFFFFE0000000, ptr %rebate, align 8, !tbaa !73
  call void @llvm.lifetime.start.p0(i64 8, ptr nonnull %retval.i)
  invoke void @_ZN8QuantLib4DateC1Ev(ptr noundef nonnull align 8 dereferenceable(8) %retval.i)
          to label %invoke.cont9 unwind label %lpad8

invoke.cont9:                                     ; preds = %invoke.cont5
  %7 = load i64, ptr %retval.i, align 8
  call void @llvm.lifetime.end.p0(i64 8, ptr nonnull %retval.i)
  %coverEventDate = getelementptr inbounds nuw i8, ptr %this, i64 64
  store i64 %7, ptr %coverEventDate, align 8
  ret void

lpad8:                                            ; preds = %invoke.cont5
  %8 = landingpad { ptr, i32 }
          cleanup
  call void @_ZN8QuantLib6Option9argumentsD2Ev(ptr noundef nonnull align 8 dereferenceable(40) %this, ptr noundef nonnull %0) #25
  resume { ptr, i32 } %8
}